target datalayout = "e-m:e-p270:32:32-p271:32:32-p272:64:64-i64:64-i128:128-f80:128-n8:16:32:64-S128"
target triple = "x86_64-pc-linux-gnu"

%struct.ssl_st = type { i32, i16, i16, ptr, ptr, ptr, ptr, ptr, i32, i32, ptr, ptr, i32, i32, ptr, ptr, ptr, ptr, ptr, ptr, ptr, ptr, i32, i32, [32 x i8], ptr, ptr, ptr, ptr, ptr, ptr, ptr, i64, %struct.crypto_ex_data_st, ptr, i32, i32, i32, i32, i16, ptr, i32, i64, ptr, ptr, ptr, ptr, ptr, ptr, i32, i32, ptr, ptr, i8, i8, i32 }
%struct.crypto_ex_data_st = type { ptr }
%struct.env_md_ctx_st = type { ptr, ptr, ptr, ptr }
%struct.ssl_session_st = type { i32, i32, i32, i32, [48 x i8], i32, [32 x i8], i32, [32 x i8], ptr, ptr, ptr, i64, i64, i64, ptr, %struct.crypto_ex_data_st, ptr, ptr, ptr, ptr, i64, i64, ptr, i64, ptr, [32 x i8], [64 x i8], i32, i32, i8 }

@.str = private unnamed_addr constant [116 x i8] c"generated/home/dtcxzyw/WorkSpace/Projects/compilers/llvm-opt-benchmark/bench/libquic/libquic/boringssl/ssl/t1_lib.c\00", align 1
@tls1_channel_id_hash.kClientIDMagic = internal constant [25 x i8] c"TLS Channel ID signature\00", align 16
@tls1_channel_id_hash.kResumptionMagic = internal constant [11 x i8] c"Resumption\00", align 1

; Function Attrs: nounwind uwtable
define hidden i32 @tls1_channel_id_hash(ptr noundef %0, ptr noundef %1, ptr noundef %2) #0 {
  %4 = alloca ptr, align 8
  %5 = alloca ptr, align 8
  %6 = alloca ptr, align 8
  %7 = alloca i32, align 4
  %8 = alloca %struct.env_md_ctx_st, align 8
  %9 = alloca [64 x i8], align 16
  %10 = alloca i32, align 4
  %11 = alloca i32, align 4
  store ptr %0, ptr %4, align 8, !tbaa !69
  store ptr %1, ptr %5, align 8, !tbaa !55
  store ptr %2, ptr %6, align 8, !tbaa !66
  call void @llvm.lifetime.start.p0(i64 4, ptr %7) #8
  store i32 0, ptr %7, align 4, !tbaa !58
  call void @llvm.lifetime.start.p0(i64 32, ptr %8) #8
  call void @EVP_MD_CTX_init(ptr noundef %8)
  %12 = call ptr @EVP_sha256()
  %13 = call i32 @EVP_DigestInit_ex(ptr noundef %8, ptr noundef %12, ptr noundef null)
  %14 = icmp ne i32 %13, 0
  br i1 %14, label %16, label %15

15:                                               ; preds = %3
  br label %63

16:                                               ; preds = %3
  %17 = call i32 @EVP_DigestUpdate(ptr noundef %8, ptr noundef @tls1_channel_id_hash.kClientIDMagic, i64 noundef 25)
  %18 = load ptr, ptr %4, align 8, !tbaa !69
  %19 = getelementptr inbounds nuw %struct.ssl_st, ptr %18, i32 0, i32 54
  %20 = load i8, ptr %19, align 1
  %21 = and i8 %20, 1
  %22 = zext i8 %21 to i32
  %23 = icmp ne i32 %22, 0
  br i1 %23, label %24, label %46

24:                                               ; preds = %16
  %25 = call i32 @EVP_DigestUpdate(ptr noundef %8, ptr noundef @tls1_channel_id_hash.kResumptionMagic, i64 noundef 11)
  %26 = load ptr, ptr %4, align 8, !tbaa !69
  %27 = getelementptr inbounds nuw %struct.ssl_st, ptr %26, i32 0, i32 25
  %28 = load ptr, ptr %27, align 8, !tbaa !178
  %29 = getelementptr inbounds nuw %struct.ssl_session_st, ptr %28, i32 0, i32 28
  %30 = load i32, ptr %29, align 8, !tbaa !179
  %31 = icmp eq i32 %30, 0
  br i1 %31, label %32, label %33

32:                                               ; preds = %24
  call void @ERR_put_error(i32 noundef 16, i32 noundef 0, i32 noundef 68, ptr noundef @.str, i32 noundef 2694)
  br label %63

33:                                               ; preds = %24
  %34 = load ptr, ptr %4, align 8, !tbaa !69
  %35 = getelementptr inbounds nuw %struct.ssl_st, ptr %34, i32 0, i32 25
  %36 = load ptr, ptr %35, align 8, !tbaa !178
  %37 = getelementptr inbounds nuw %struct.ssl_session_st, ptr %36, i32 0, i32 27
  %38 = getelementptr inbounds [64 x i8], ptr %37, i64 0, i64 0
  %39 = load ptr, ptr %4, align 8, !tbaa !69
  %40 = getelementptr inbounds nuw %struct.ssl_st, ptr %39, i32 0, i32 25
  %41 = load ptr, ptr %40, align 8, !tbaa !178
  %42 = getelementptr inbounds nuw %struct.ssl_session_st, ptr %41, i32 0, i32 28
  %43 = load i32, ptr %42, align 8, !tbaa !179
  %44 = zext i32 %43 to i64
  %45 = call i32 @EVP_DigestUpdate(ptr noundef %8, ptr noundef %38, i64 noundef %44)
  br label %46

46:                                               ; preds = %33, %16
  %47 = load ptr, ptr %4, align 8, !tbaa !69
  %48 = getelementptr inbounds [64 x i8], ptr %9, i64 0, i64 0
  %49 = call i32 @tls1_handshake_digest(ptr noundef %47, ptr noundef %48, i64 noundef 64)
  store i32 %49, ptr %10, align 4, !tbaa !58
  %50 = load i32, ptr %10, align 4, !tbaa !58
  %51 = icmp slt i32 %50, 0
  br i1 %51, label %52, label %53

52:                                               ; preds = %46
  br label %63

53:                                               ; preds = %46
  %54 = getelementptr inbounds [64 x i8], ptr %9, i64 0, i64 0
  %55 = load i32, ptr %10, align 4, !tbaa !58
  %56 = sext i32 %55 to i64
  %57 = call i32 @EVP_DigestUpdate(ptr noundef %8, ptr noundef %54, i64 noundef %56)
  %58 = load ptr, ptr %5, align 8, !tbaa !55
  %59 = call i32 @EVP_DigestFinal_ex(ptr noundef %8, ptr noundef %58, ptr noundef %11)
  %60 = load i32, ptr %11, align 4, !tbaa !58
  %61 = zext i32 %60 to i64
  %62 = load ptr, ptr %6, align 8, !tbaa !66
  store i64 %61, ptr %62, align 8, !tbaa !56
  store i32 1, ptr %7, align 4, !tbaa !58
  br label %63

63:                                               ; preds = %53, %52, %32, %15
  %64 = call i32 @EVP_MD_CTX_cleanup(ptr noundef %8)
  %65 = load i32, ptr %7, align 4, !tbaa !58
  call void @llvm.lifetime.end.p0(i64 32, ptr %8) #8
  call void @llvm.lifetime.end.p0(i64 4, ptr %7) #8
  ret i32 %65
}