; Function Attrs: nounwind uwtable
define hidden range(i32 0, 2) i32 @tls1_channel_id_hash(ptr noundef %0, ptr noundef %1, ptr noundef writeonly captures(none) %2) local_unnamed_addr #0 {
  %4 = alloca %struct.env_md_ctx_st, align 8
  %5 = alloca [64 x i8], align 16
  %6 = alloca i32, align 4
  call void @llvm.lifetime.start.p0(i64 32, ptr nonnull %4) #21
  call void @EVP_MD_CTX_init(ptr noundef nonnull %4) #21
  %7 = call ptr @EVP_sha256() #21
  %8 = call i32 @EVP_DigestInit_ex(ptr noundef nonnull %4, ptr noundef %7, ptr noundef null) #21
  %.not = icmp eq i32 %8, 0
  br i1 %.not, label %35, label %9

9:                                                ; preds = %3
  %10 = call i32 @EVP_DigestUpdate(ptr noundef nonnull %4, ptr noundef nonnull @tls1_channel_id_hash.kClientIDMagic, i64 noundef 25) #21
  %11 = getelementptr inbounds nuw i8, ptr %0, i64 385
  %12 = load i8, ptr %11, align 1
  %13 = and i8 %12, 1
  %.not11 = icmp eq i8 %13, 0
  br i1 %.not11, label %26, label %14

14:                                               ; preds = %9
  %15 = call i32 @EVP_DigestUpdate(ptr noundef nonnull %4, ptr noundef nonnull @tls1_channel_id_hash.kResumptionMagic, i64 noundef 11) #21
  %16 = getelementptr inbounds nuw i8, ptr %0, i64 184
  %17 = load ptr, ptr %16, align 8, !tbaa !147
  %18 = getelementptr inbounds nuw i8, ptr %17, i64 368
  %19 = load i32, ptr %18, align 8, !tbaa !148
  %20 = icmp eq i32 %19, 0
  br i1 %20, label %21, label %22

21:                                               ; preds = %14
  call void @ERR_put_error(i32 noundef 16, i32 noundef 0, i32 noundef 68, ptr noundef nonnull @.str, i32 noundef 2694) #21
  br label %35

22:                                               ; preds = %14
  %23 = getelementptr inbounds nuw i8, ptr %17, i64 304
  %24 = zext i32 %19 to i64
  %25 = call i32 @EVP_DigestUpdate(ptr noundef nonnull %4, ptr noundef nonnull %23, i64 noundef %24) #21
  br label %26

26:                                               ; preds = %22, %9
  %27 = call i32 @tls1_handshake_digest(ptr noundef nonnull %0, ptr noundef nonnull %5, i64 noundef 64) #21
  %28 = icmp slt i32 %27, 0
  br i1 %28, label %35, label %29

29:                                               ; preds = %26
  %30 = zext nneg i32 %27 to i64
  %31 = call i32 @EVP_DigestUpdate(ptr noundef nonnull %4, ptr noundef nonnull %5, i64 noundef %30) #21
  %32 = call i32 @EVP_DigestFinal_ex(ptr noundef nonnull %4, ptr noundef %1, ptr noundef nonnull %6) #21
  %33 = load i32, ptr %6, align 4, !tbaa !80
  %34 = zext i32 %33 to i64
  store i64 %34, ptr %2, align 8, !tbaa !52
  br label %35

35:                                               ; preds = %26, %3, %29, %21
  %.0 = phi i32 [ 0, %21 ], [ 0, %26 ], [ 1, %29 ], [ 0, %3 ]
  %36 = call i32 @EVP_MD_CTX_cleanup(ptr noundef nonnull %4) #21
  call void @llvm.lifetime.end.p0(i64 32, ptr nonnull %4) #21
  ret i32 %.0
}